ARM GAS  /tmp/ccj3WcrP.s 			page 1


   1              		.cpu cortex-m4
   2              		.arch armv7e-m
   3              		.fpu fpv4-sp-d16
   4              		.eabi_attribute 27, 1
   5              		.eabi_attribute 28, 1
   6              		.eabi_attribute 20, 1
   7              		.eabi_attribute 21, 1
   8              		.eabi_attribute 23, 3
   9              		.eabi_attribute 24, 1
  10              		.eabi_attribute 25, 1
  11              		.eabi_attribute 26, 1
  12              		.eabi_attribute 30, 1
  13              		.eabi_attribute 34, 1
  14              		.eabi_attribute 18, 4
  15              		.file	"buttons.c"
  16              		.text
  17              	.Ltext0:
  18              		.cfi_sections	.debug_frame
  19              		.file 1 "Core/Src/buttons.c"
  20              		.section	.text.button_read_pressed,"ax",%progbits
  21              		.align	1
  22              		.syntax unified
  23              		.thumb
  24              		.thumb_func
  26              	button_read_pressed:
  27              	.LVL0:
  28              	.LFB220:
   1:Core/Src/buttons.c **** #include "buttons.h"
   2:Core/Src/buttons.c **** 
   3:Core/Src/buttons.c **** #include "main.h"
   4:Core/Src/buttons.c **** #include "stm32f4xx_hal.h"
   5:Core/Src/buttons.c **** 
   6:Core/Src/buttons.c **** typedef struct
   7:Core/Src/buttons.c **** {
   8:Core/Src/buttons.c ****     GPIO_TypeDef *port;
   9:Core/Src/buttons.c ****     uint16_t pin;
  10:Core/Src/buttons.c ****     bool pressed;
  11:Core/Src/buttons.c **** } button_t;
  12:Core/Src/buttons.c **** 
  13:Core/Src/buttons.c **** static button_t buttons[BUTTON_COUNT] =
  14:Core/Src/buttons.c **** {
  15:Core/Src/buttons.c ****     [BUTTON_1] =
  16:Core/Src/buttons.c ****     {
  17:Core/Src/buttons.c ****         .port = BUTTON_1_GPIO_Port,
  18:Core/Src/buttons.c ****         .pin = BUTTON_1_Pin,
  19:Core/Src/buttons.c ****         .pressed = false,
  20:Core/Src/buttons.c ****     },
  21:Core/Src/buttons.c ****     [BUTTON_2] =
  22:Core/Src/buttons.c ****     {
  23:Core/Src/buttons.c ****         .port = BUTTON_2_GPIO_Port,
  24:Core/Src/buttons.c ****         .pin = BUTTON_2_Pin,
  25:Core/Src/buttons.c ****         .pressed = false,
  26:Core/Src/buttons.c ****     },
  27:Core/Src/buttons.c ****     [BUTTON_3] =
  28:Core/Src/buttons.c ****     {
  29:Core/Src/buttons.c ****         .port = BUTTON_3_GPIO_Port,
  30:Core/Src/buttons.c ****         .pin = BUTTON_3_Pin,
ARM GAS  /tmp/ccj3WcrP.s 			page 2


  31:Core/Src/buttons.c ****         .pressed = false,
  32:Core/Src/buttons.c ****     },
  33:Core/Src/buttons.c ****     [BUTTON_4] =
  34:Core/Src/buttons.c ****     {
  35:Core/Src/buttons.c ****         .port = BUTTON_4_GPIO_Port,
  36:Core/Src/buttons.c ****         .pin = BUTTON_4_Pin,
  37:Core/Src/buttons.c ****         .pressed = false,
  38:Core/Src/buttons.c ****     },
  39:Core/Src/buttons.c **** };
  40:Core/Src/buttons.c **** 
  41:Core/Src/buttons.c **** static bool button_read_pressed(GPIO_TypeDef *port, uint16_t pin)
  42:Core/Src/buttons.c **** {
  29              		.loc 1 42 1 view -0
  30              		.cfi_startproc
  31              		@ args = 0, pretend = 0, frame = 0
  32              		@ frame_needed = 0, uses_anonymous_args = 0
  33              		.loc 1 42 1 is_stmt 0 view .LVU1
  34 0000 08B5     		push	{r3, lr}
  35              	.LCFI0:
  36              		.cfi_def_cfa_offset 8
  37              		.cfi_offset 3, -8
  38              		.cfi_offset 14, -4
  43:Core/Src/buttons.c ****     /*
  44:Core/Src/buttons.c ****      * Hardware has external pull-ups:
  45:Core/Src/buttons.c ****      * released = high
  46:Core/Src/buttons.c ****      * pressed  = low
  47:Core/Src/buttons.c ****      */
  48:Core/Src/buttons.c ****     return HAL_GPIO_ReadPin(port, pin) == GPIO_PIN_RESET;
  39              		.loc 1 48 5 is_stmt 1 view .LVU2
  40              		.loc 1 48 12 is_stmt 0 view .LVU3
  41 0002 FFF7FEFF 		bl	HAL_GPIO_ReadPin
  42              	.LVL1:
  49:Core/Src/buttons.c **** }
  43              		.loc 1 49 1 view .LVU4
  44 0006 B0FA80F0 		clz	r0, r0
  45 000a 4009     		lsrs	r0, r0, #5
  46 000c 08BD     		pop	{r3, pc}
  47              		.cfi_endproc
  48              	.LFE220:
  50              		.section	.text.buttons_poll,"ax",%progbits
  51              		.align	1
  52              		.global	buttons_poll
  53              		.syntax unified
  54              		.thumb
  55              		.thumb_func
  57              	buttons_poll:
  58              	.LFB222:
  50:Core/Src/buttons.c **** 
  51:Core/Src/buttons.c **** void buttons_init(void)
  52:Core/Src/buttons.c **** {
  53:Core/Src/buttons.c ****     buttons_poll();
  54:Core/Src/buttons.c **** }
  55:Core/Src/buttons.c **** 
  56:Core/Src/buttons.c **** void buttons_poll(void)
  57:Core/Src/buttons.c **** {
  59              		.loc 1 57 1 is_stmt 1 view -0
  60              		.cfi_startproc
ARM GAS  /tmp/ccj3WcrP.s 			page 3


  61              		@ args = 0, pretend = 0, frame = 0
  62              		@ frame_needed = 0, uses_anonymous_args = 0
  63 0000 38B5     		push	{r3, r4, r5, lr}
  64              	.LCFI1:
  65              		.cfi_def_cfa_offset 16
  66              		.cfi_offset 3, -16
  67              		.cfi_offset 4, -12
  68              		.cfi_offset 5, -8
  69              		.cfi_offset 14, -4
  58:Core/Src/buttons.c ****     for (uint32_t i = 0; i < BUTTON_COUNT; i++)
  70              		.loc 1 58 5 view .LVU6
  71              	.LBB2:
  72              		.loc 1 58 10 view .LVU7
  73              	.LVL2:
  74              		.loc 1 58 19 is_stmt 0 view .LVU8
  75 0002 0024     		movs	r4, #0
  76              		.loc 1 58 5 view .LVU9
  77 0004 09E0     		b	.L4
  78              	.LVL3:
  79              	.L5:
  59:Core/Src/buttons.c ****     {
  60:Core/Src/buttons.c ****         buttons[i].pressed = button_read_pressed(buttons[i].port, buttons[i].pin);
  80              		.loc 1 60 9 is_stmt 1 view .LVU10
  81              		.loc 1 60 30 is_stmt 0 view .LVU11
  82 0006 064B     		ldr	r3, .L7
  83 0008 03EBC405 		add	r5, r3, r4, lsl #3
  84 000c A988     		ldrh	r1, [r5, #4]
  85 000e 53F83400 		ldr	r0, [r3, r4, lsl #3]
  86 0012 FFF7FEFF 		bl	button_read_pressed
  87              	.LVL4:
  88              		.loc 1 60 28 discriminator 1 view .LVU12
  89 0016 A871     		strb	r0, [r5, #6]
  58:Core/Src/buttons.c ****     for (uint32_t i = 0; i < BUTTON_COUNT; i++)
  90              		.loc 1 58 45 is_stmt 1 discriminator 3 view .LVU13
  91 0018 0134     		adds	r4, r4, #1
  92              	.LVL5:
  93              	.L4:
  58:Core/Src/buttons.c ****     for (uint32_t i = 0; i < BUTTON_COUNT; i++)
  94              		.loc 1 58 28 discriminator 1 view .LVU14
  95 001a 032C     		cmp	r4, #3
  96 001c F3D9     		bls	.L5
  97              	.LBE2:
  61:Core/Src/buttons.c ****     }
  62:Core/Src/buttons.c **** }
  98              		.loc 1 62 1 is_stmt 0 view .LVU15
  99 001e 38BD     		pop	{r3, r4, r5, pc}
 100              	.LVL6:
 101              	.L8:
 102              		.loc 1 62 1 view .LVU16
 103              		.align	2
 104              	.L7:
 105 0020 00000000 		.word	buttons
 106              		.cfi_endproc
 107              	.LFE222:
 109              		.section	.text.buttons_init,"ax",%progbits
 110              		.align	1
 111              		.global	buttons_init
ARM GAS  /tmp/ccj3WcrP.s 			page 4


 112              		.syntax unified
 113              		.thumb
 114              		.thumb_func
 116              	buttons_init:
 117              	.LFB221:
  52:Core/Src/buttons.c ****     buttons_poll();
 118              		.loc 1 52 1 is_stmt 1 view -0
 119              		.cfi_startproc
 120              		@ args = 0, pretend = 0, frame = 0
 121              		@ frame_needed = 0, uses_anonymous_args = 0
 122 0000 08B5     		push	{r3, lr}
 123              	.LCFI2:
 124              		.cfi_def_cfa_offset 8
 125              		.cfi_offset 3, -8
 126              		.cfi_offset 14, -4
  53:Core/Src/buttons.c **** }
 127              		.loc 1 53 5 view .LVU18
 128 0002 FFF7FEFF 		bl	buttons_poll
 129              	.LVL7:
  54:Core/Src/buttons.c **** 
 130              		.loc 1 54 1 is_stmt 0 view .LVU19
 131 0006 08BD     		pop	{r3, pc}
 132              		.cfi_endproc
 133              	.LFE221:
 135              		.section	.text.buttons_is_pressed,"ax",%progbits
 136              		.align	1
 137              		.global	buttons_is_pressed
 138              		.syntax unified
 139              		.thumb
 140              		.thumb_func
 142              	buttons_is_pressed:
 143              	.LVL8:
 144              	.LFB223:
  63:Core/Src/buttons.c **** 
  64:Core/Src/buttons.c **** bool buttons_is_pressed(button_id_t button)
  65:Core/Src/buttons.c **** {
 145              		.loc 1 65 1 is_stmt 1 view -0
 146              		.cfi_startproc
 147              		@ args = 0, pretend = 0, frame = 0
 148              		@ frame_needed = 0, uses_anonymous_args = 0
 149              		@ link register save eliminated.
  66:Core/Src/buttons.c ****     if (button >= BUTTON_COUNT)
 150              		.loc 1 66 5 view .LVU21
 151              		.loc 1 66 8 is_stmt 0 view .LVU22
 152 0000 0328     		cmp	r0, #3
 153 0002 04D8     		bhi	.L13
  67:Core/Src/buttons.c ****     {
  68:Core/Src/buttons.c ****         return false;
  69:Core/Src/buttons.c ****     }
  70:Core/Src/buttons.c **** 
  71:Core/Src/buttons.c ****     return buttons[button].pressed;
 154              		.loc 1 71 5 is_stmt 1 view .LVU23
 155              		.loc 1 71 27 is_stmt 0 view .LVU24
 156 0004 034B     		ldr	r3, .L14
 157 0006 03EBC003 		add	r3, r3, r0, lsl #3
 158 000a 9879     		ldrb	r0, [r3, #6]	@ zero_extendqisi2
 159              	.LVL9:
ARM GAS  /tmp/ccj3WcrP.s 			page 5


 160              		.loc 1 71 27 view .LVU25
 161 000c 7047     		bx	lr
 162              	.LVL10:
 163              	.L13:
  68:Core/Src/buttons.c ****     }
 164              		.loc 1 68 16 view .LVU26
 165 000e 0020     		movs	r0, #0
 166              	.LVL11:
  72:Core/Src/buttons.c **** }
 167              		.loc 1 72 1 view .LVU27
 168 0010 7047     		bx	lr
 169              	.L15:
 170 0012 00BF     		.align	2
 171              	.L14:
 172 0014 00000000 		.word	buttons
 173              		.cfi_endproc
 174              	.LFE223:
 176              		.section	.text.buttons_get_state,"ax",%progbits
 177              		.align	1
 178              		.global	buttons_get_state
 179              		.syntax unified
 180              		.thumb
 181              		.thumb_func
 183              	buttons_get_state:
 184              	.LFB224:
  73:Core/Src/buttons.c **** 
  74:Core/Src/buttons.c **** button_state_t buttons_get_state(void)
  75:Core/Src/buttons.c **** {
 185              		.loc 1 75 1 is_stmt 1 view -0
 186              		.cfi_startproc
 187              		@ args = 0, pretend = 0, frame = 8
 188              		@ frame_needed = 0, uses_anonymous_args = 0
 189              		@ link register save eliminated.
 190 0000 82B0     		sub	sp, sp, #8
 191              	.LCFI3:
 192              		.cfi_def_cfa_offset 8
  76:Core/Src/buttons.c ****     button_state_t state =
 193              		.loc 1 76 5 view .LVU29
  77:Core/Src/buttons.c ****     {
  78:Core/Src/buttons.c ****         .button_1 = buttons[BUTTON_1].pressed,
 194              		.loc 1 78 38 is_stmt 0 view .LVU30
 195 0002 114B     		ldr	r3, .L18
 196 0004 9A79     		ldrb	r2, [r3, #6]	@ zero_extendqisi2
  76:Core/Src/buttons.c ****     button_state_t state =
 197              		.loc 1 76 20 view .LVU31
 198 0006 8DF80020 		strb	r2, [sp]
  79:Core/Src/buttons.c ****         .button_2 = buttons[BUTTON_2].pressed,
 199              		.loc 1 79 38 view .LVU32
 200 000a 9A7B     		ldrb	r2, [r3, #14]	@ zero_extendqisi2
  76:Core/Src/buttons.c ****     button_state_t state =
 201              		.loc 1 76 20 view .LVU33
 202 000c 8DF80120 		strb	r2, [sp, #1]
  80:Core/Src/buttons.c ****         .button_3 = buttons[BUTTON_3].pressed,
 203              		.loc 1 80 38 view .LVU34
 204 0010 9A7D     		ldrb	r2, [r3, #22]	@ zero_extendqisi2
  76:Core/Src/buttons.c ****     {
 205              		.loc 1 76 20 view .LVU35
ARM GAS  /tmp/ccj3WcrP.s 			page 6


 206 0012 8DF80220 		strb	r2, [sp, #2]
  81:Core/Src/buttons.c ****         .button_4 = buttons[BUTTON_4].pressed,
 207              		.loc 1 81 38 view .LVU36
 208 0016 9B7F     		ldrb	r3, [r3, #30]	@ zero_extendqisi2
  76:Core/Src/buttons.c ****     {
 209              		.loc 1 76 20 view .LVU37
 210 0018 8DF80330 		strb	r3, [sp, #3]
  82:Core/Src/buttons.c ****     };
  83:Core/Src/buttons.c **** 
  84:Core/Src/buttons.c ****     return state;
 211              		.loc 1 84 5 is_stmt 1 view .LVU38
 212              		.loc 1 84 12 is_stmt 0 view .LVU39
 213 001c 009B     		ldr	r3, [sp]
 214 001e 0193     		str	r3, [sp, #4]
 215 0020 0020     		movs	r0, #0
 216 0022 9DF80430 		ldrb	r3, [sp, #4]	@ zero_extendqisi2
 217 0026 63F30700 		bfi	r0, r3, #0, #8
 218 002a 9DF80530 		ldrb	r3, [sp, #5]	@ zero_extendqisi2
 219 002e 63F30F20 		bfi	r0, r3, #8, #8
 220 0032 9DF80630 		ldrb	r3, [sp, #6]	@ zero_extendqisi2
 221 0036 63F31740 		bfi	r0, r3, #16, #8
 222 003a 9DF80730 		ldrb	r3, [sp, #7]	@ zero_extendqisi2
 223 003e 63F31F60 		bfi	r0, r3, #24, #8
  85:Core/Src/buttons.c **** }...
 224              		.loc 1 85 1 view .LVU40
 225 0042 02B0     		add	sp, sp, #8
 226              	.LCFI4:
 227              		.cfi_def_cfa_offset 0
 228              		@ sp needed
 229 0044 7047     		bx	lr
 230              	.L19:
 231 0046 00BF     		.align	2
 232              	.L18:
 233 0048 00000000 		.word	buttons
 234              		.cfi_endproc
 235              	.LFE224:
 237              		.section	.data.buttons,"aw"
 238              		.align	2
 241              	buttons:
 242 0000 00000240 		.word	1073872896
 243 0004 0400     		.short	4
 244 0006 00       		.byte	0
 245 0007 00       		.space	1
 246 0008 00000240 		.word	1073872896
 247 000c 0800     		.short	8
 248 000e 00       		.byte	0
 249 000f 00       		.space	1
 250 0010 00000240 		.word	1073872896
 251 0014 0004     		.short	1024
 252 0016 00       		.byte	0
 253 0017 00       		.space	1
 254 0018 00000240 		.word	1073872896
 255 001c 0002     		.short	512
 256 001e 00       		.byte	0
 257 001f 00       		.space	1
 258              		.text
 259              	.Letext0:
ARM GAS  /tmp/ccj3WcrP.s 			page 7


 260              		.file 2 "/usr/lib/gcc/arm-none-eabi/13.2.1/include/stdint.h"
 261              		.file 3 "Core/Inc/buttons.h"
 262              		.file 4 "Drivers/CMSIS/Device/ST/STM32F4xx/Include/stm32f411xe.h"
 263              		.file 5 "Drivers/STM32F4xx_HAL_Driver/Inc/stm32f4xx_hal_gpio.h"
ARM GAS  /tmp/ccj3WcrP.s 			page 8

